target datalayout = "e-m:e-p270:32:32-p271:32:32-p272:64:64-i64:64-i128:128-f80:128-n8:16:32:64-S128"
target triple = "x86_64-pc-linux-gnu"

@.str = private unnamed_addr constant [15 x i8] c"test_table_pos\00", align 1
@.str.1 = private unnamed_addr constant [33 x i8] c"../openssl/test/asn1_time_test.c\00", align 1
@.str.2 = private unnamed_addr constant [34 x i8] c"Adding negative-sign time_t tests\00", align 1
@.str.3 = private unnamed_addr constant [15 x i8] c"test_table_neg\00", align 1
@.str.4 = private unnamed_addr constant [27 x i8] c"Adding 64-bit time_t tests\00", align 1
@.str.5 = private unnamed_addr constant [21 x i8] c"test_table_pos_64bit\00", align 1
@.str.6 = private unnamed_addr constant [41 x i8] c"Adding negative-sign 64-bit time_t tests\00", align 1
@.str.7 = private unnamed_addr constant [21 x i8] c"test_table_neg_64bit\00", align 1
@.str.8 = private unnamed_addr constant [19 x i8] c"test_table_compare\00", align 1
@.str.9 = private unnamed_addr constant [14 x i8] c"test_time_dup\00", align 1
@.str.10 = private unnamed_addr constant [23 x i8] c"convert_asn1_to_time_t\00", align 1
@.str.11 = private unnamed_addr constant [24 x i8] c"convert_tm_to_asn1_time\00", align 1

; Function Attrs: nounwind uwtable
define dso_local i32 @setup_tests() #0 {
  %1 = alloca i64, align 8
  %2 = alloca ptr, align 8
  call void @llvm.lifetime.start.p0(i64 8, ptr %1) #5
  store i64 -1, ptr %1, align 8, !tbaa !4
  call void @llvm.lifetime.start.p0(i64 8, ptr %2) #5
  %3 = call ptr @localtime(ptr noundef %1) #5
  store ptr %3, ptr %2, align 8, !tbaa !8
  call void @add_all_tests(ptr noundef @.str, ptr noundef @test_table_pos, i32 noundef 48, i32 noundef 1)
  %4 = load i64, ptr %1, align 8, !tbaa !4
  %5 = icmp sgt i64 %4, 0
  br i1 %5, label %10, label %6

6:                                                ; preds = %0
  %7 = load ptr, ptr %2, align 8, !tbaa !8
  %8 = icmp ne ptr %7, null
  br i1 %8, label %9, label %10

9:                                                ; preds = %6
  call void (ptr, i32, ptr, ...) @test_info(ptr noundef @.str.1, i32 noundef 493, ptr noundef @.str.2)
  call void @add_all_tests(ptr noundef @.str.3, ptr noundef @test_table_neg, i32 noundef 3, i32 noundef 1)
  br label %10

10:                                               ; preds = %9, %6, %0
  call void (ptr, i32, ptr, ...) @test_info(ptr noundef @.str.1, i32 noundef 497, ptr noundef @.str.4)
  call void @add_all_tests(ptr noundef @.str.5, ptr noundef @test_table_pos_64bit, i32 noundef 4, i32 noundef 1)
  %11 = load i64, ptr %1, align 8, !tbaa !4
  %12 = icmp sgt i64 %11, 0
  br i1 %12, label %17, label %13

13:                                               ; preds = %10
  %14 = load ptr, ptr %2, align 8, !tbaa !8
  %15 = icmp ne ptr %14, null
  br i1 %15, label %16, label %17

16:                                               ; preds = %13
  call void (ptr, i32, ptr, ...) @test_info(ptr noundef @.str.1, i32 noundef 501, ptr noundef @.str.6)
  call void @add_all_tests(ptr noundef @.str.7, ptr noundef @test_table_neg_64bit, i32 noundef 2, i32 noundef 1)
  br label %17

17:                                               ; preds = %16, %13, %10
  call void @add_all_tests(ptr noundef @.str.8, ptr noundef @test_table_compare, i32 noundef 16, i32 noundef 1)
  call void @add_test(ptr noundef @.str.9, ptr noundef @test_time_dup)
  call void @add_all_tests(ptr noundef @.str.10, ptr noundef @convert_asn1_to_time_t, i32 noundef 5, i32 noundef 1)
  call void @add_test(ptr noundef @.str.11, ptr noundef @convert_tm_to_asn1_time)
  call void @llvm.lifetime.end.p0(i64 8, ptr %2) #5
  call void @llvm.lifetime.end.p0(i64 8, ptr %1) #5
  ret i32 1
}