; Function Attrs: nounwind uwtable
define dso_local noundef i32 @setup_tests() local_unnamed_addr #0 {
  %1 = alloca i64, align 8
  call void @llvm.lifetime.start.p0(i64 8, ptr nonnull %1) #5
  store i64 -1, ptr %1, align 8, !tbaa !4
  %2 = call ptr @localtime(ptr noundef nonnull %1) #5
  call void @add_all_tests(ptr noundef nonnull @.str, ptr noundef nonnull @test_table_pos, i32 noundef 48, i32 noundef 1) #5
  %3 = load i64, ptr %1, align 8, !tbaa !4
  %4 = icmp slt i64 %3, 1
  %5 = icmp ne ptr %2, null
  %or.cond = select i1 %4, i1 %5, i1 false
  br i1 %or.cond, label %6, label %7

6:                                                ; preds = %0
  call void (ptr, i32, ptr, ...) @test_info(ptr noundef nonnull @.str.1, i32 noundef 493, ptr noundef nonnull @.str.2) #5
  call void @add_all_tests(ptr noundef nonnull @.str.3, ptr noundef nonnull @test_table_neg, i32 noundef 3, i32 noundef 1) #5
  br label %7

7:                                                ; preds = %6, %0
  call void (ptr, i32, ptr, ...) @test_info(ptr noundef nonnull @.str.1, i32 noundef 497, ptr noundef nonnull @.str.4) #5
  call void @add_all_tests(ptr noundef nonnull @.str.5, ptr noundef nonnull @test_table_pos_64bit, i32 noundef 4, i32 noundef 1) #5
  %8 = load i64, ptr %1, align 8, !tbaa !4
  %9 = icmp slt i64 %8, 1
  %or.cond3 = select i1 %9, i1 %5, i1 false
  br i1 %or.cond3, label %10, label %11

10:                                               ; preds = %7
  call void (ptr, i32, ptr, ...) @test_info(ptr noundef nonnull @.str.1, i32 noundef 501, ptr noundef nonnull @.str.6) #5
  call void @add_all_tests(ptr noundef nonnull @.str.7, ptr noundef nonnull @test_table_neg_64bit, i32 noundef 2, i32 noundef 1) #5
  br label %11

11:                                               ; preds = %10, %7
  call void @add_all_tests(ptr noundef nonnull @.str.8, ptr noundef nonnull @test_table_compare, i32 noundef 16, i32 noundef 1) #5
  call void @add_test(ptr noundef nonnull @.str.9, ptr noundef nonnull @test_time_dup) #5
  call void @add_all_tests(ptr noundef nonnull @.str.10, ptr noundef nonnull @convert_asn1_to_time_t, i32 noundef 5, i32 noundef 1) #5
  call void @add_test(ptr noundef nonnull @.str.11, ptr noundef nonnull @convert_tm_to_asn1_time) #5
  call void @llvm.lifetime.end.p0(i64 8, ptr nonnull %1) #5
  ret i32 1
}